Certificate:
    Data:
        Version: 3 (0x2)
        Serial Number: 2 (0x2)
    Signature Algorithm: sha512WithRSAEncryption
        Issuer: O=DAOS, CN=DAOS CA
        Validity
            Not Before: Dec 18 09:09:35 2019 GMT
            Not After : Dec 17 09:09:35 2022 GMT
        Subject: O=DAOS, CN=admin
        Subject Public Key Info:
            Public Key Algorithm: rsaEncryption
                Public-Key: (4096 bit)
                Modulus:
                    00:cf:a1:b7:74:2c:9a:de:2f:10:18:95:3b:64:5c:
                    59:f9:1d:ba:8d:30:80:4f:8b:d4:86:55:c2:23:e0:
                    59:a7:fa:83:00:43:f6:50:bc:af:f8:d4:34:c4:e1:
                    94:11:58:f7:67:a8:35:87:85:b2:f8:01:5d:5a:f4:
                    81:bf:81:18:b7:bc:bb:10:fa:96:4e:7c:07:28:4b:
                    a7:cc:6c:ca:0e:75:d4:83:8f:42:a7:f4:47:8f:12:
                    9b:56:b0:89:9b:d1:c9:b1:70:45:8e:2c:98:d4:e8:
                    d5:d9:5d:23:b2:06:1c:38:06:6a:7a:26:41:e0:0b:
                    0f:9b:30:8a:65:04:d7:e1:7b:08:38:3f:f6:3a:ac:
                    6b:fe:9c:39:21:eb:0a:71:f3:31:49:f0:34:37:fc:
                    09:94:00:66:fb:9a:b4:7a:91:93:4b:1f:07:e0:94:
                    a1:b8:dd:01:3f:1e:d6:bb:10:59:6d:c7:5b:06:9b:
                    5d:5b:be:d6:a1:ce:4f:6b:b6:65:90:43:35:08:31:
                    87:0c:7d:a8:1b:97:b8:c9:b0:a6:84:89:cd:2e:3a:
                    96:79:c9:a0:9f:e0:62:19:fe:67:99:da:dd:ac:89:
                    4f:3e:27:a7:1d:e1:df:0e:0c:20:ee:46:04:55:f5:
                    d0:a3:61:09:3a:d3:e9:8d:e7:5c:c3:a9:98:78:83:
                    ff:da:fa:16:ef:8b:06:c2:3b:60:f0:aa:cb:08:82:
                    f1:7f:c7:b0:32:1d:5c:af:1e:e2:ca:73:d7:9a:90:
                    f9:d4:09:52:37:27:d8:f5:b6:df:b8:d6:49:d6:19:
                    7a:e8:e4:30:f5:57:8b:2c:53:b9:3c:06:4c:b0:69:
                    f2:e1:63:d2:82:c2:ca:48:cb:a0:dc:1f:a9:7e:f9:
                    99:0b:50:ff:4a:c0:5d:4b:2a:a3:06:ab:0e:a2:39:
                    e3:a6:07:8e:98:9e:68:77:78:06:b2:8c:2e:11:9c:
                    40:d3:f6:a8:e3:2e:a6:5d:24:c5:c9:5a:cf:08:3b:
                    0c:44:8e:46:1a:a6:19:cd:92:a8:a1:d8:27:b0:e3:
                    b0:3e:ae:27:64:d3:53:2a:27:5a:34:f8:58:a8:1f:
                    8d:e3:71:cf:c7:bf:06:90:89:6a:7a:15:c7:b3:cc:
                    2a:36:f8:16:73:dd:07:25:a0:2b:bd:2b:87:3c:35:
                    47:72:81:d8:ca:f6:1d:92:86:82:c7:45:b9:19:31:
                    55:75:f7:b3:c9:33:00:a2:30:04:8b:1d:70:31:e0:
                    4d:67:8a:b1:ee:38:ee:3b:32:81:be:79:79:dc:7d:
                    18:49:93:a4:71:d2:d7:d1:b7:f3:37:4b:35:f3:f7:
                    33:ed:6d:54:c8:5e:fd:fb:b7:e6:8b:60:4c:b8:4b:
                    e7:f4:1d
                Exponent: 65537 (0x10001)
        X509v3 extensions:
            X509v3 Key Usage: critical
                Digital Signature, Key Encipherment
            X509v3 Extended Key Usage: 
                TLS Web Client Authentication
    Signature Algorithm: sha512WithRSAEncryption
         1c:41:6b:79:33:b5:0a:34:83:98:23:46:42:25:94:14:cb:62:
         fe:38:6d:7e:3f:f5:9d:87:89:97:14:b2:a6:70:0f:3e:5a:78:
         69:ec:80:ef:75:0b:c0:cb:5d:42:0d:cc:fa:38:e2:8b:95:c6:
         e1:c8:97:d7:98:1c:bb:bf:6d:18:c1:40:5b:ed:95:72:f3:a5:
         9f:01:7e:ae:5f:2a:a1:eb:9c:b6:a3:4f:03:3c:d8:ad:32:10:
         93:85:2f:84:eb:c4:cc:f2:55:06:cc:d9:ab:6e:b7:5b:a1:a4:
         4e:93:f8:30:89:ff:72:9b:81:c2:39:42:06:70:a7:bc:4b:49:
         7c:54:39:a1:a0:c9:4d:62:44:96:19:12:69:88:d0:2f:04:7e:
         06:76:0a:2d:c0:da:03:ff:cc:a7:53:cf:fc:6f:0e:8e:e2:f8:
         3d:cb:2e:10:49:39:4d:3f:c1:af:1e:9f:a6:7b:12:5e:b4:f2:
         c8:3c:86:08:c1:08:87:7d:ac:0c:77:41:6f:8d:a4:ed:f1:57:
         46:14:fd:0f:04:34:5c:9d:56:51:e8:e7:a9:ec:ea:45:14:55:
         4e:1d:e1:aa:68:d0:7d:76:c4:a9:42:13:d0:35:2b:8e:fd:65:
         17:7b:e5:de:5b:4a:b4:0e:2b:df:5c:18:08:0a:6b:cc:1a:3b:
         8a:c9:d5:83:fc:b1:f3:3b:35:b6:20:4b:ea:aa:ab:53:24:92:
         a0:17:f2:0f:29:dd:0e:e6:50:2a:11:8c:db:47:3d:36:53:26:
         4d:ff:f1:1a:df:8b:d5:b9:2c:85:2f:b7:b9:68:c8:23:a8:4c:
         ad:fd:26:53:dd:9e:23:82:7e:07:0f:ae:df:d0:8f:47:90:26:
         10:52:a8:e7:5e:4a:a4:56:41:b6:3b:11:3c:ab:cc:f7:26:0a:
         4a:41:72:be:86:77:75:af:dc:1c:5d:dd:2b:54:86:4a:91:aa:
         af:9d:5f:ae:c0:8a:42:ed:84:ac:f3:26:f2:dd:b6:df:13:32:
         68:87:08:bf:02:d0:8c:51:94:5b:d0:dd:ea:6e:74:68:10:63:
         f3:30:4b:14:05:82:b5:40:3f:a3:18:6c:5e:b4:8b:ab:fc:94:
         2f:57:0e:35:e6:59:02:4c:2f:50:c9:00:26:ac:ae:3f:b7:7f:
         4d:b1:2b:74:80:de:85:26:87:f2:07:d1:b5:94:af:13:62:81:
         c9:73:68:37:81:0c:01:ef:28:df:81:fd:3b:dd:3b:b7:5c:ad:
         ae:4d:d1:4d:72:a6:15:99:4e:35:cb:fa:ab:e0:66:fa:e4:65:
         02:80:b2:ed:33:8e:a4:22:a2:59:26:40:e1:44:d2:d9:92:56:
         d2:5f:47:52:de:07:12:6a
-----BEGIN CERTIFICATE-----
MIIE4jCCAsqgAwIBAgIBAjANBgkqhkiG9w0BAQ0FADAhMQ0wCwYDVQQKDAREQU9T
MRAwDgYDVQQDDAdEQU9TIENBMB4XDTE5MTIxODA5MDkzNVoXDTIyMTIxNzA5MDkz
NVowHzENMAsGA1UECgwEREFPUzEOMAwGA1UEAwwFYWRtaW4wggIiMA0GCSqGSIb3
DQEBAQUAA4ICDwAwggIKAoICAQDPobd0LJreLxAYlTtkXFn5HbqNMIBPi9SGVcIj
4Fmn+oMAQ/ZQvK/41DTE4ZQRWPdnqDWHhbL4AV1a9IG/gRi3vLsQ+pZOfAcoS6fM
bMoOddSDj0Kn9EePEptWsImb0cmxcEWOLJjU6NXZXSOyBhw4Bmp6JkHgCw+bMIpl
BNfhewg4P/Y6rGv+nDkh6wpx8zFJ8DQ3/AmUAGb7mrR6kZNLHwfglKG43QE/Hta7
EFltx1sGm11bvtahzk9rtmWQQzUIMYcMfagbl7jJsKaEic0uOpZ5yaCf4GIZ/meZ
2t2siU8+J6cd4d8ODCDuRgRV9dCjYQk60+mN51zDqZh4g//a+hbviwbCO2DwqssI
gvF/x7AyHVyvHuLKc9eakPnUCVI3J9j1tt+41knWGXro5DD1V4ssU7k8BkywafLh
Y9KCwspIy6DcH6l++ZkLUP9KwF1LKqMGqw6iOeOmB46Ynmh3eAayjC4RnEDT9qjj
LqZdJMXJWs8IOwxEjkYaphnNkqih2Cew47A+ridk01MqJ1o0+FioH43jcc/HvwaQ
iWp6FcezzCo2+BZz3QcloCu9K4c8NUdygdjK9h2ShoLHRbkZMVV197PJMwCiMASL
HXAx4E1nirHuOO47MoG+eXncfRhJk6Rx0tfRt/M3SzXz9zPtbVTIXv37t+aLYEy4
S+f0HQIDAQABoycwJTAOBgNVHQ8BAf8EBAMCBaAwEwYDVR0lBAwwCgYIKwYBBQUH
AwIwDQYJKoZIhvcNAQENBQADggIBABxBa3kztQo0g5gjRkIllBTLYv44bX4/9Z2H
iZcUsqZwDz5aeGnsgO91C8DLXUINzPo44ouVxuHIl9eYHLu/bRjBQFvtlXLzpZ8B
fq5fKqHrnLajTwM82K0yEJOFL4TrxMzyVQbM2atut1uhpE6T+DCJ/3KbgcI5QgZw
p7xLSXxUOaGgyU1iRJYZEmmI0C8EfgZ2Ci3A2gP/zKdTz/xvDo7i+D3LLhBJOU0/
wa8en6Z7El608sg8hgjBCId9rAx3QW+NpO3xV0YU/Q8ENFydVlHo56ns6kUUVU4d
4apo0H12xKlCE9A1K479ZRd75d5bSrQOK99cGAgKa8waO4rJ1YP8sfM7NbYgS+qq
q1MkkqAX8g8p3Q7mUCoRjNtHPTZTJk3/8Rrfi9W5LIUvt7loyCOoTK39JlPdniOC
fgcPrt/Qj0eQJhBSqOdeSqRWQbY7ETyrzPcmCkpBcr6Gd3Wv3Bxd3StUhkqRqq+d
X67AikLthKzzJvLdtt8TMmiHCL8C0IxRlFvQ3epudGgQY/MwSxQFgrVAP6MYbF60
i6v8lC9XDjXmWQJML1DJACasrj+3f02xK3SA3oUmh/IH0bWUrxNigclzaDeBDAHv
KN+B/TvdO7dcra5N0U1yphWZTjXL+qvgZvrkZQKAsu0zjqQiolkmQOFE0tmSVtJf
R1LeBxJq
-----END CERTIFICATE-----
