Certificate:
    Data:
        Version: 3 (0x2)
        Serial Number: 4 (0x4)
    Signature Algorithm: sha512WithRSAEncryption
        Issuer: O=DAOS, CN=DAOS CA
        Validity
            Not Before: Dec 18 09:09:36 2019 GMT
            Not After : Dec 17 09:09:36 2022 GMT
        Subject: O=DAOS, CN=test
        Subject Public Key Info:
            Public Key Algorithm: rsaEncryption
                Public-Key: (4096 bit)
                Modulus:
                    00:97:7e:26:aa:b7:d1:65:d6:10:eb:35:b6:e5:db:
                    e0:55:84:ee:fc:a4:f0:06:31:2b:5d:41:da:bd:60:
                    88:7b:5f:78:97:68:79:b1:da:7d:28:6e:c3:bf:99:
                    e3:24:c3:c7:d7:12:35:6f:c1:b7:aa:b9:aa:f0:fb:
                    d6:1f:c8:b8:91:83:37:cd:d7:74:6a:33:7b:9f:99:
                    92:7e:b5:20:5d:5c:78:a3:16:71:87:0b:3f:2a:12:
                    b7:cc:28:15:67:91:70:dc:a5:17:cb:2e:c9:25:1c:
                    40:23:00:de:58:eb:fb:1c:cb:fe:af:0a:78:ba:39:
                    a7:16:d0:c9:3d:00:bd:b5:e4:44:86:8f:ad:47:ca:
                    66:ac:f2:b5:b5:96:82:2e:55:d2:59:26:19:4c:9b:
                    a7:8d:19:f9:6d:fb:87:fd:6e:c1:06:8e:0d:70:b5:
                    ef:a0:42:26:94:e1:8c:90:42:a9:51:0e:b0:1b:9b:
                    91:de:cc:a8:86:80:66:ca:e1:e0:f1:b5:99:78:14:
                    b7:6e:64:7b:fb:6b:3c:fa:5b:0e:c9:53:62:45:9c:
                    76:3f:53:1a:37:a8:67:c2:aa:11:27:ef:17:07:35:
                    a4:fb:b8:c2:3c:fb:26:d5:c7:2e:0f:67:a6:c7:e9:
                    b6:91:70:7a:99:e6:94:cf:6a:11:82:88:3b:15:5d:
                    f3:a9:38:a7:3d:7e:b8:d6:fe:ab:03:fd:3b:ba:61:
                    ce:63:4d:8e:3b:cb:0c:3f:7e:7d:4c:4a:75:e3:5b:
                    22:d6:f4:a7:f8:4f:2b:4e:86:88:ea:b5:ff:28:96:
                    9f:72:1c:1b:0c:48:0e:5b:ef:d8:82:d1:f6:a8:37:
                    fb:ba:d3:1f:6f:73:35:5d:3e:56:da:8f:e2:cc:35:
                    f6:ef:13:7c:ac:5b:42:21:31:13:5f:56:22:96:3d:
                    3f:68:dd:a7:c1:9a:43:1f:9c:76:4e:d6:d2:b1:6d:
                    73:83:09:2a:43:9c:14:79:62:21:a6:8e:f5:16:ae:
                    17:c3:5f:29:b2:41:bb:42:f8:55:ce:9b:c9:61:93:
                    5b:48:3d:44:82:08:54:a8:a0:ff:88:f4:60:bf:d8:
                    7d:b8:61:a8:a2:2b:05:51:1c:34:f3:47:7d:e2:4a:
                    91:97:e2:f6:2a:85:c6:60:f1:39:6c:f4:96:81:31:
                    6a:22:b4:5d:14:dc:5c:a9:78:fc:70:79:25:91:14:
                    46:eb:89:a0:5e:4e:db:63:eb:97:26:af:ff:e2:c3:
                    67:76:90:35:40:fc:14:ee:16:58:62:76:17:48:93:
                    5f:69:e1:e2:ca:83:2c:65:bc:59:e3:2f:cb:71:6b:
                    2d:f8:5c:c5:e4:38:8e:f8:68:8a:57:37:cb:08:2d:
                    58:f1:01
                Exponent: 65537 (0x10001)
        X509v3 extensions:
            X509v3 Key Usage: critical
                Digital Signature, Key Encipherment
            X509v3 Extended Key Usage: 
                TLS Web Client Authentication
    Signature Algorithm: sha512WithRSAEncryption
         b7:5e:30:8b:ef:ef:ce:78:e0:02:81:48:65:e3:fc:c3:35:64:
         a3:a7:f7:1c:ff:d0:32:31:fb:30:cc:71:76:0d:7f:b7:12:89:
         02:32:10:d8:b6:d3:4f:78:aa:ab:d9:c0:b9:ec:67:2b:d1:b5:
         3b:a8:de:8d:21:b4:6c:97:c2:5d:36:9e:42:6d:b4:6a:e8:31:
         1e:24:dc:0b:09:d1:d7:3e:73:3d:ec:86:b0:4d:d4:54:39:06:
         20:fa:90:4b:62:c4:b6:db:88:4a:2d:ee:ba:df:6a:01:78:08:
         a2:41:93:da:a5:a7:55:ec:f4:27:ec:37:fc:c1:2a:a0:92:a3:
         a2:55:c1:47:bb:b4:db:ad:a1:60:9e:21:f7:1a:33:1a:02:28:
         3e:9d:c9:0a:01:cd:2a:a4:20:15:3c:e6:c8:52:d9:d0:39:80:
         c3:ee:9d:46:ea:90:a7:50:b6:a8:d1:66:c9:e9:81:1e:17:bc:
         0a:04:ef:ed:c4:4a:8e:76:dd:01:a5:ea:e7:53:7a:a5:7d:af:
         dd:ee:53:82:bc:42:6e:76:a6:ca:34:b2:00:5a:3c:29:12:1d:
         d8:af:5f:a9:eb:95:64:75:8f:a7:61:11:e1:32:82:bc:a1:da:
         ee:a5:00:9a:a7:e4:6e:76:25:a3:ce:4e:f8:e0:8f:29:9a:f2:
         cb:80:e9:50:a0:50:74:72:b4:04:39:70:20:3b:14:f4:0f:c8:
         89:13:8c:f7:5f:d0:7f:ca:25:75:13:d6:b6:90:e4:42:5e:b0:
         7b:7d:36:43:2c:7d:55:7a:99:86:de:43:b7:84:c4:bb:8f:46:
         10:c4:61:b6:af:cb:bc:e9:69:5e:e3:54:14:c6:94:93:cb:94:
         fa:5c:12:2d:6e:09:ec:b4:26:d7:80:e3:2a:24:c8:73:af:70:
         e8:07:3d:4b:5d:99:25:67:f9:85:ef:01:19:ce:df:b0:8f:f4:
         30:f9:f2:a7:88:99:0d:73:df:1b:34:4b:55:36:75:22:5f:05:
         1f:0b:63:73:4f:0f:37:17:eb:07:f9:b3:3d:de:85:d2:30:33:
         a1:10:9a:20:d1:19:9e:f5:a1:9e:7e:4e:6c:af:5f:58:e0:fb:
         1b:7e:b4:de:25:54:d7:b3:af:b1:e3:98:60:12:49:0c:58:ff:
         b3:f0:d5:a8:23:30:f8:fa:6d:ac:04:f0:4e:4c:26:e4:44:db:
         95:14:35:37:e0:32:3b:be:a6:0a:c7:6d:dc:8f:3d:30:90:ce:
         69:95:72:8f:6c:f5:5b:92:cc:7a:a8:48:34:5e:64:1e:4d:22:
         56:03:01:c9:03:e8:de:4b:b5:c7:ba:5b:ec:83:b8:8f:29:c6:
         d9:69:65:e4:bf:06:5b:e2
-----BEGIN CERTIFICATE-----
MIIE4TCCAsmgAwIBAgIBBDANBgkqhkiG9w0BAQ0FADAhMQ0wCwYDVQQKDAREQU9T
MRAwDgYDVQQDDAdEQU9TIENBMB4XDTE5MTIxODA5MDkzNloXDTIyMTIxNzA5MDkz
NlowHjENMAsGA1UECgwEREFPUzENMAsGA1UEAwwEdGVzdDCCAiIwDQYJKoZIhvcN
AQEBBQADggIPADCCAgoCggIBAJd+Jqq30WXWEOs1tuXb4FWE7vyk8AYxK11B2r1g
iHtfeJdoebHafShuw7+Z4yTDx9cSNW/Bt6q5qvD71h/IuJGDN83XdGoze5+Zkn61
IF1ceKMWcYcLPyoSt8woFWeRcNylF8suySUcQCMA3ljr+xzL/q8KeLo5pxbQyT0A
vbXkRIaPrUfKZqzytbWWgi5V0lkmGUybp40Z+W37h/1uwQaODXC176BCJpThjJBC
qVEOsBubkd7MqIaAZsrh4PG1mXgUt25ke/trPPpbDslTYkWcdj9TGjeoZ8KqESfv
Fwc1pPu4wjz7JtXHLg9npsfptpFwepnmlM9qEYKIOxVd86k4pz1+uNb+qwP9O7ph
zmNNjjvLDD9+fUxKdeNbItb0p/hPK06GiOq1/yiWn3IcGwxIDlvv2ILR9qg3+7rT
H29zNV0+VtqP4sw19u8TfKxbQiExE19WIpY9P2jdp8GaQx+cdk7W0rFtc4MJKkOc
FHliIaaO9RauF8NfKbJBu0L4Vc6byWGTW0g9RIIIVKig/4j0YL/YfbhhqKIrBVEc
NPNHfeJKkZfi9iqFxmDxOWz0loExaiK0XRTcXKl4/HB5JZEURuuJoF5O22Prlyav
/+LDZ3aQNUD8FO4WWGJ2F0iTX2nh4sqDLGW8WeMvy3FrLfhcxeQ4jvhoilc3ywgt
WPEBAgMBAAGjJzAlMA4GA1UdDwEB/wQEAwIFoDATBgNVHSUEDDAKBggrBgEFBQcD
AjANBgkqhkiG9w0BAQ0FAAOCAgEAt14wi+/vznjgAoFIZeP8wzVko6f3HP/QMjH7
MMxxdg1/txKJAjIQ2LbTT3iqq9nAuexnK9G1O6jejSG0bJfCXTaeQm20augxHiTc
CwnR1z5zPeyGsE3UVDkGIPqQS2LEttuISi3uut9qAXgIokGT2qWnVez0J+w3/MEq
oJKjolXBR7u0262hYJ4h9xozGgIoPp3JCgHNKqQgFTzmyFLZ0DmAw+6dRuqQp1C2
qNFmyemBHhe8CgTv7cRKjnbdAaXq51N6pX2v3e5TgrxCbnamyjSyAFo8KRId2K9f
qeuVZHWPp2ER4TKCvKHa7qUAmqfkbnYlo85O+OCPKZryy4DpUKBQdHK0BDlwIDsU
9A/IiROM91/Qf8oldRPWtpDkQl6we302Qyx9VXqZht5Dt4TEu49GEMRhtq/LvOlp
XuNUFMaUk8uU+lwSLW4J7LQm14DjKiTIc69w6Ac9S12ZJWf5he8BGc7fsI/0MPny
p4iZDXPfGzRLVTZ1Il8FHwtjc08PNxfrB/mzPd6F0jAzoRCaINEZnvWhnn5ObK9f
WOD7G3603iVU17OvseOYYBJJDFj/s/DVqCMw+PptrATwTkwm5ETblRQ1N+AyO76m
Csdt3I89MJDOaZVyj2z1W5LMeqhINF5kHk0iVgMByQPo3ku1x7pb7IO4jynG2Wll
5L8GW+I=
-----END CERTIFICATE-----
