Certificate:
    Data:
        Version: 3 (0x2)
        Serial Number: 2 (0x2)
        Signature Algorithm: sha512WithRSAEncryption
        Issuer: O=DAOS, CN=DAOS CA
        Validity
            Not Before: Feb  9 21:56:47 2023 GMT
            Not After : Feb 10 21:56:47 2023 GMT
        Subject: O=DAOS, CN=agent
        Subject Public Key Info:
            Public Key Algorithm: rsaEncryption
                RSA Public-Key: (3072 bit)
                Modulus:
                    00:b4:aa:ff:3e:6d:f8:78:19:90:47:4e:58:9a:3e:
                    e6:78:8a:d1:60:02:58:1e:08:98:45:eb:b8:fd:af:
                    ea:69:7d:a7:36:7c:5a:76:e3:81:2d:ef:40:76:5e:
                    50:14:06:75:19:69:a2:c5:eb:e1:01:a1:ed:21:e2:
                    c8:a8:17:09:2f:74:91:09:24:fd:3b:06:c1:2a:60:
                    3f:53:54:ec:d4:08:fc:82:d0:a5:f4:74:ae:e1:89:
                    ea:a6:b5:5d:2d:d1:47:a8:e3:cc:00:ac:9a:d4:03:
                    4e:0c:76:0d:dd:22:bf:59:0c:f4:ea:63:01:17:9f:
                    bb:a3:df:17:0d:fe:c8:73:b5:c8:ed:51:76:05:08:
                    30:42:ae:dd:54:3f:57:39:02:37:b3:c5:1b:87:8f:
                    e5:04:d9:ff:74:28:08:fb:1b:c0:97:df:68:1c:0c:
                    36:3c:98:16:b4:2a:4a:23:10:aa:24:e1:42:da:47:
                    15:da:d1:11:8f:ca:a0:ad:b9:e0:1d:ca:39:5e:c0:
                    f8:28:a1:30:4b:50:97:35:94:42:0e:9a:ca:11:aa:
                    af:bc:00:71:8f:bd:08:c1:0a:ab:85:77:22:1c:e9:
                    50:e9:f9:0c:73:7b:3a:7c:9b:d2:26:06:0c:e3:9e:
                    e4:ef:9f:d9:54:2e:3a:e7:82:a0:47:29:fa:2d:6c:
                    de:5e:a1:35:e1:c8:5b:3e:9f:5e:a3:69:40:39:26:
                    9f:37:88:96:75:c9:f3:be:24:89:58:a1:21:fb:cd:
                    c4:02:19:7b:4f:74:1d:e2:16:18:52:3e:74:40:8e:
                    68:f6:2e:b8:2f:7e:67:97:dd:da:31:37:96:05:bd:
                    f5:e3:ee:83:d0:59:f5:25:cc:40:91:d3:ef:5d:f0:
                    be:9c:8c:90:3a:33:6e:0c:fc:ef:18:6e:94:4d:fa:
                    9a:63:db:71:3b:7e:0f:70:f4:fa:b6:70:8c:1b:30:
                    60:91:84:6d:e0:74:8d:9f:52:22:4d:ce:ce:bb:04:
                    20:4b:1c:f2:ad:c7:75:81:24:af
                Exponent: 65537 (0x10001)
        X509v3 extensions:
            X509v3 Key Usage: critical
                Digital Signature, Key Encipherment
            X509v3 Extended Key Usage: 
                TLS Web Client Authentication
    Signature Algorithm: sha512WithRSAEncryption
         1b:32:fe:24:98:34:28:dc:9e:aa:8a:e3:ef:83:ba:70:d5:cd:
         28:6c:f1:59:ef:38:7e:08:02:cd:92:dd:10:f7:94:99:53:4d:
         62:ab:f8:e7:83:ab:4f:a7:82:28:8a:de:3b:55:49:6d:c3:cb:
         17:3e:1f:3f:55:78:cb:f2:0f:a7:dd:a2:8d:d4:17:7c:cb:7a:
         22:a2:c0:46:0f:fc:e0:ac:0a:29:7f:36:4a:ba:3f:b2:1a:e9:
         ee:f1:35:69:1b:07:0d:31:e0:75:1f:35:57:d9:82:6d:9e:65:
         e2:90:b0:94:f4:ed:a9:81:8c:61:7a:d6:70:2d:f3:f0:c6:5a:
         78:af:7e:1b:97:5e:20:14:c2:08:50:61:4f:c6:e9:73:0a:1b:
         bc:c7:b0:6f:67:e9:3a:d8:7d:4e:fc:d2:31:a5:bb:6c:f0:24:
         77:4f:53:36:0d:6b:1b:da:4c:5d:d2:ae:1c:dd:51:92:f6:d8:
         1a:88:ce:73:a2:41:4e:0d:ff:bf:05:f7:15:90:94:c4:38:7d:
         cb:1c:3c:56:51:73:09:06:7b:79:1f:9a:87:ae:d0:82:ca:d6:
         c3:e2:86:fc:97:db:a3:97:53:0b:80:ae:26:27:53:55:35:ea:
         15:ce:ba:db:ac:4d:51:50:f6:be:9e:ca:89:7b:f7:dd:32:e3:
         07:a1:a8:4e:6e:94:79:c6:15:c9:31:86:d6:b0:09:0d:bf:e7:
         46:63:06:5c:9d:b5:8a:9d:aa:bb:d8:f1:81:72:23:d8:49:80:
         59:12:a1:d6:64:2e:98:f7:9e:b0:67:6d:df:f9:d8:01:ae:68:
         3f:a0:c3:15:4f:ca:f4:e9:07:44:a5:84:3b:e9:e4:38:07:6b:
         db:6c:23:dc:e0:ae:ee:e0:a2:8d:5d:3e:0a:8c:79:86:5f:fa:
         17:96:7e:7b:00:37:30:4e:89:72:ee:1a:47:63:59:92:0a:bf:
         d1:a4:b3:06:29:bd:a3:37:df:72:18:6f:7d:82:18:ae:18:64:
         3a:08:3c:25:ab:5f
-----BEGIN CERTIFICATE-----
MIID4jCCAkqgAwIBAgIBAjANBgkqhkiG9w0BAQ0FADAhMQ0wCwYDVQQKDAREQU9T
MRAwDgYDVQQDDAdEQU9TIENBMB4XDTIzMDIwOTIxNTY0N1oXDTIzMDIxMDIxNTY0
N1owHzENMAsGA1UECgwEREFPUzEOMAwGA1UEAwwFYWdlbnQwggGiMA0GCSqGSIb3
DQEBAQUAA4IBjwAwggGKAoIBgQC0qv8+bfh4GZBHTliaPuZ4itFgAlgeCJhF67j9
r+ppfac2fFp244Et70B2XlAUBnUZaaLF6+EBoe0h4sioFwkvdJEJJP07BsEqYD9T
VOzUCPyC0KX0dK7hieqmtV0t0Ueo48wArJrUA04Mdg3dIr9ZDPTqYwEXn7uj3xcN
/shztcjtUXYFCDBCrt1UP1c5AjezxRuHj+UE2f90KAj7G8CX32gcDDY8mBa0Kkoj
EKok4ULaRxXa0RGPyqCtueAdyjlewPgooTBLUJc1lEIOmsoRqq+8AHGPvQjBCquF
dyIc6VDp+Qxzezp8m9ImBgzjnuTvn9lULjrngqBHKfotbN5eoTXhyFs+n16jaUA5
Jp83iJZ1yfO+JIlYoSH7zcQCGXtPdB3iFhhSPnRAjmj2LrgvfmeX3doxN5YFvfXj
7oPQWfUlzECR0+9d8L6cjJA6M24M/O8YbpRN+ppj23E7fg9w9Pq2cIwbMGCRhG3g
dI2fUiJNzs67BCBLHPKtx3WBJK8CAwEAAaMnMCUwDgYDVR0PAQH/BAQDAgWgMBMG
A1UdJQQMMAoGCCsGAQUFBwMCMA0GCSqGSIb3DQEBDQUAA4IBgQAbMv4kmDQo3J6q
iuPvg7pw1c0obPFZ7zh+CALNkt0Q95SZU01iq/jng6tPp4Ioit47VUltw8sXPh8/
VXjL8g+n3aKN1Bd8y3oiosBGD/zgrAopfzZKuj+yGunu8TVpGwcNMeB1HzVX2YJt
nmXikLCU9O2pgYxhetZwLfPwxlp4r34bl14gFMIIUGFPxulzChu8x7BvZ+k62H1O
/NIxpbts8CR3T1M2DWsb2kxd0q4c3VGS9tgaiM5zokFODf+/BfcVkJTEOH3LHDxW
UXMJBnt5H5qHrtCCytbD4ob8l9ujl1MLgK4mJ1NVNeoVzrrbrE1RUPa+nsqJe/fd
MuMHoahObpR5xhXJMYbWsAkNv+dGYwZcnbWKnaq72PGBciPYSYBZEqHWZC6Y956w
Z23f+dgBrmg/oMMVT8r06QdEpYQ76eQ4B2vbbCPc4K7u4KKNXT4KjHmGX/oXln57
ADcwToly7hpHY1mSCr/RpLMGKb2jN99yGG99ghiuGGQ6CDwlq18=
-----END CERTIFICATE-----
