Certificate:
    Data:
        Version: 3 (0x2)
        Serial Number: 2 (0x2)
    Signature Algorithm: sha512WithRSAEncryption
        Issuer: O=DAOS, CN=DAOS CA
        Validity
            Not Before: Jun  5 21:50:46 2019 GMT
            Not After : Jun  4 21:50:46 2020 GMT
        Subject: O=DAOS, CN=admin
        Subject Public Key Info:
            Public Key Algorithm: rsaEncryption
                Public-Key: (4096 bit)
                Modulus:
                    00:d6:41:93:c4:10:c8:4a:02:2c:cd:75:d1:2a:9d:
                    87:a2:1d:c4:91:2a:d9:d1:c1:a5:b7:26:9e:2d:90:
                    35:54:c0:ae:d1:e3:e2:af:6b:a6:0b:be:3a:81:1a:
                    d2:62:c3:fe:5e:15:e4:25:bf:1f:8f:36:8c:fb:94:
                    7f:43:7d:0b:ea:1d:e9:1d:14:d9:c4:fd:d8:2e:7e:
                    74:ef:fb:66:ca:bb:38:f3:1a:b4:20:8d:95:de:80:
                    4f:10:3f:5a:17:ff:45:ef:8c:43:2b:17:d7:d8:ab:
                    c4:93:62:c8:9e:64:99:a6:b2:0f:02:b1:83:c3:71:
                    ad:91:60:b5:ac:b7:1b:4a:97:46:f5:a6:7b:3b:2e:
                    ba:9b:92:81:f7:d2:31:c6:df:76:22:11:a2:52:fa:
                    a2:69:b6:51:01:27:db:11:08:62:ee:69:e1:5d:be:
                    bb:cf:69:78:5b:54:4e:ae:1e:18:6e:39:c6:29:0b:
                    e4:31:df:1a:08:0d:87:25:50:07:bc:ee:05:bc:ba:
                    7f:6d:6e:d1:3b:93:b1:78:6d:2f:5c:ea:b2:5c:f8:
                    ff:f1:4f:dc:8b:11:a0:e7:12:48:1e:d2:49:a0:d7:
                    cf:2f:1f:19:06:66:45:43:7e:0a:92:b1:5f:70:57:
                    e8:89:ab:ec:f6:72:6a:83:95:67:48:ab:c7:fc:c2:
                    83:14:00:7f:7f:32:61:55:0a:b8:0a:ac:db:65:e2:
                    46:15:f0:d5:8f:13:c9:e5:34:5d:62:4c:41:35:a4:
                    53:e4:65:bf:0b:be:65:49:6a:08:ca:dd:2b:7d:20:
                    96:de:a8:85:c5:61:70:34:f4:de:f6:2a:20:bf:fd:
                    c9:22:2c:96:2a:7e:64:66:46:fa:61:b1:53:68:1b:
                    af:e8:bf:84:bf:9b:cc:0e:e0:cd:f0:96:5f:d3:10:
                    9a:ec:73:54:0e:6a:eb:be:cb:b0:35:3f:55:00:05:
                    d8:c0:2f:34:8e:68:c9:42:cd:fb:69:19:1e:a8:e0:
                    8c:35:91:f2:e9:20:58:54:95:e6:30:d3:8e:51:25:
                    9b:f8:33:2f:f5:94:ce:5a:1b:ad:52:b8:68:f8:9d:
                    62:4b:95:f9:be:05:24:7d:83:f6:47:e3:95:c7:c8:
                    7d:0f:18:03:8b:ba:41:c0:67:16:cc:06:28:3b:5b:
                    35:b0:fa:c7:9b:5c:34:08:00:4d:3d:d7:e4:3c:bf:
                    10:e8:ed:d9:5a:b4:be:6e:4f:c5:73:13:af:8b:7d:
                    17:6a:a3:88:17:ff:67:0b:f7:5e:9c:25:9f:25:05:
                    d2:a9:81:ba:6d:66:d0:c4:79:29:dc:28:2d:be:83:
                    e3:18:65:78:cc:f5:c1:e6:0b:5c:80:c0:63:8d:d4:
                    96:1b:91
                Exponent: 65537 (0x10001)
        X509v3 extensions:
            X509v3 Key Usage: critical
                Digital Signature, Key Encipherment
            X509v3 Extended Key Usage: 
                TLS Web Client Authentication
    Signature Algorithm: sha512WithRSAEncryption
         09:e9:be:f4:66:16:c1:f4:bf:4d:89:ef:bc:d5:8c:ac:48:09:
         25:09:7a:64:66:d3:b1:e5:aa:2e:f8:60:b5:6e:9a:15:ee:4d:
         bf:48:8f:f9:43:05:61:f8:89:2a:70:91:0d:39:39:50:0b:09:
         60:f0:8a:31:28:5a:5e:88:22:10:12:63:75:6e:96:fc:e2:b5:
         af:36:58:ab:72:21:4d:3f:14:b5:cc:d1:3f:fb:ce:15:4a:85:
         19:b6:2e:d0:d6:1d:9a:89:f5:e2:5d:80:ee:a0:a4:2d:d6:a3:
         ee:a8:7e:ac:96:9b:69:0d:76:36:a8:36:3a:85:63:fb:c2:ee:
         0b:41:da:e6:d5:84:95:59:15:c1:63:6f:b3:60:7b:90:fd:9a:
         a0:f5:44:3c:f0:fb:89:14:b4:8e:61:9a:c8:86:d3:2e:96:de:
         77:44:32:a1:2a:73:f4:64:b2:07:98:f0:31:cc:51:eb:72:d5:
         2a:39:9e:2b:03:c3:81:31:f7:27:27:26:34:ab:51:86:d2:72:
         80:22:2b:55:84:40:11:d9:c9:de:3a:01:fd:ba:8d:1e:9f:44:
         1d:3e:76:e5:b5:53:0d:0d:c4:1e:eb:18:db:e4:4b:bf:92:8a:
         26:85:a1:1b:fd:13:ad:4a:ba:ba:70:9d:73:20:dc:60:87:9f:
         28:45:27:88:31:91:90:ef:0d:d8:d5:4b:71:97:3a:8b:f4:b1:
         1b:c7:59:70:0c:d1:96:1a:66:3f:a1:c4:05:ec:f8:b9:3a:8a:
         10:ed:58:29:10:8a:79:95:42:9a:e1:7c:7d:6b:dd:7d:6f:e7:
         34:13:63:b0:01:a5:a2:13:47:d2:0d:96:d2:2b:3a:5e:f0:a5:
         59:b1:7a:45:9f:f7:e2:a8:1c:de:ee:7c:9c:ff:78:98:2e:08:
         0b:58:80:66:5a:5a:40:39:85:4f:dc:b6:f4:f2:b4:46:9a:59:
         bc:6e:d6:ca:3a:97:7d:70:46:f7:cb:69:6e:e3:80:cb:01:d0:
         34:b9:32:d1:a9:3c:bf:50:8a:82:52:e7:29:87:93:5a:b5:d9:
         20:4f:b0:37:29:18:82:d8:ff:33:99:10:e7:90:cb:6e:aa:a6:
         89:18:13:ac:54:ba:f2:99:28:32:ed:8e:fd:45:1b:69:62:47:
         7f:19:e1:d4:fe:08:73:4e:ab:f2:61:cb:53:ba:83:8b:38:cf:
         c1:56:99:79:9b:75:9c:a4:24:8a:c9:24:60:71:79:ed:97:38:
         8e:c8:9a:e0:32:44:e9:d2:35:dd:d2:8f:af:fb:be:f3:e4:01:
         34:27:1e:a6:86:93:1c:d6:19:55:e5:60:b4:c1:2d:b4:ea:6b:
         52:1f:41:1f:8e:4b:56:c6
-----BEGIN CERTIFICATE-----
MIIE4jCCAsqgAwIBAgIBAjANBgkqhkiG9w0BAQ0FADAhMQ0wCwYDVQQKDAREQU9T
MRAwDgYDVQQDDAdEQU9TIENBMB4XDTE5MDYwNTIxNTA0NloXDTIwMDYwNDIxNTA0
NlowHzENMAsGA1UECgwEREFPUzEOMAwGA1UEAwwFYWRtaW4wggIiMA0GCSqGSIb3
DQEBAQUAA4ICDwAwggIKAoICAQDWQZPEEMhKAizNddEqnYeiHcSRKtnRwaW3Jp4t
kDVUwK7R4+Kva6YLvjqBGtJiw/5eFeQlvx+PNoz7lH9DfQvqHekdFNnE/dgufnTv
+2bKuzjzGrQgjZXegE8QP1oX/0XvjEMrF9fYq8STYsieZJmmsg8CsYPDca2RYLWs
txtKl0b1pns7LrqbkoH30jHG33YiEaJS+qJptlEBJ9sRCGLuaeFdvrvPaXhbVE6u
HhhuOcYpC+Qx3xoIDYclUAe87gW8un9tbtE7k7F4bS9c6rJc+P/xT9yLEaDnEkge
0kmg188vHxkGZkVDfgqSsV9wV+iJq+z2cmqDlWdIq8f8woMUAH9/MmFVCrgKrNtl
4kYV8NWPE8nlNF1iTEE1pFPkZb8LvmVJagjK3St9IJbeqIXFYXA09N72KiC//cki
LJYqfmRmRvphsVNoG6/ov4S/m8wO4M3wll/TEJrsc1QOauu+y7A1P1UABdjALzSO
aMlCzftpGR6o4Iw1kfLpIFhUleYw045RJZv4My/1lM5aG61SuGj4nWJLlfm+BSR9
g/ZH45XHyH0PGAOLukHAZxbMBig7WzWw+sebXDQIAE091+Q8vxDo7dlatL5uT8Vz
E6+LfRdqo4gX/2cL916cJZ8lBdKpgbptZtDEeSncKC2+g+MYZXjM9cHmC1yAwGON
1JYbkQIDAQABoycwJTAOBgNVHQ8BAf8EBAMCBaAwEwYDVR0lBAwwCgYIKwYBBQUH
AwIwDQYJKoZIhvcNAQENBQADggIBAAnpvvRmFsH0v02J77zVjKxICSUJemRm07Hl
qi74YLVumhXuTb9Ij/lDBWH4iSpwkQ05OVALCWDwijEoWl6IIhASY3Vulvzita82
WKtyIU0/FLXM0T/7zhVKhRm2LtDWHZqJ9eJdgO6gpC3Wo+6ofqyWm2kNdjaoNjqF
Y/vC7gtB2ubVhJVZFcFjb7Nge5D9mqD1RDzw+4kUtI5hmsiG0y6W3ndEMqEqc/Rk
sgeY8DHMUety1So5nisDw4Ex9ycnJjSrUYbScoAiK1WEQBHZyd46Af26jR6fRB0+
duW1Uw0NxB7rGNvkS7+SiiaFoRv9E61KurpwnXMg3GCHnyhFJ4gxkZDvDdjVS3GX
Oov0sRvHWXAM0ZYaZj+hxAXs+Lk6ihDtWCkQinmVQprhfH1r3X1v5zQTY7ABpaIT
R9INltIrOl7wpVmxekWf9+KoHN7ufJz/eJguCAtYgGZaWkA5hU/ctvTytEaaWbxu
1so6l31wRvfLaW7jgMsB0DS5MtGpPL9QioJS5ymHk1q12SBPsDcpGILY/zOZEOeQ
y26qpokYE6xUuvKZKDLtjv1FG2liR38Z4dT+CHNOq/Jhy1O6g4s4z8FWmXmbdZyk
JIrJJGBxee2XOI7ImuAyROnSNd3Sj6/7vvPkATQnHqaGkxzWGVXlYLTBLbTqa1If
QR+OS1bG
-----END CERTIFICATE-----
