Certificate:
    Data:
        Version: 3 (0x2)
        Serial Number: 3 (0x3)
    Signature Algorithm: sha512WithRSAEncryption
        Issuer: O=DAOS, CN=DAOS CA
        Validity
            Not Before: Jun  5 21:50:47 2019 GMT
            Not After : Jun  4 21:50:47 2020 GMT
        Subject: O=DAOS, CN=server
        Subject Public Key Info:
            Public Key Algorithm: rsaEncryption
                Public-Key: (4096 bit)
                Modulus:
                    00:cc:d3:6b:a3:66:90:0d:28:df:e8:7e:a5:8b:41:
                    13:74:52:6a:2c:39:b3:be:0a:ae:f4:a8:1c:e3:8f:
                    1e:ef:e1:0f:e5:3a:75:19:55:97:ec:e4:29:5f:9b:
                    5d:77:e5:10:4b:66:38:61:0a:6d:1c:10:58:4d:0e:
                    bc:10:21:6f:c3:39:15:f6:52:b6:6a:40:8f:87:55:
                    b4:6c:ae:d4:3a:44:84:6a:cb:7f:16:25:f7:81:f9:
                    32:55:de:9d:b3:e2:c3:13:bc:15:db:cc:f0:5c:90:
                    34:38:7b:1c:3d:3f:17:4a:3f:d2:63:36:9b:60:18:
                    4f:a4:bd:88:df:42:74:00:53:0d:6c:5b:90:68:62:
                    da:e8:48:8d:ac:26:9f:2d:19:87:c1:35:3b:8d:87:
                    14:19:5f:8c:4c:50:54:ca:e8:52:e8:f1:63:a9:9f:
                    5c:a7:35:23:f8:06:ec:85:84:05:fc:8c:d3:7b:12:
                    5a:42:eb:8e:ad:bf:aa:73:5f:cb:6f:63:b3:f9:b1:
                    53:ed:3b:57:02:95:c4:f7:c2:7e:00:59:ea:90:89:
                    d7:b8:d6:91:90:f1:7f:61:91:eb:7a:30:34:b0:4f:
                    e3:e3:c7:39:3b:7b:06:24:a6:25:29:57:44:fa:7a:
                    f7:de:c9:57:84:5e:a9:ea:46:e6:eb:31:a2:a9:4a:
                    db:78:86:62:5d:2e:ce:fc:0c:fb:89:22:cd:7a:e0:
                    87:45:69:2c:49:82:15:d2:86:08:74:0f:12:81:4a:
                    99:f4:c1:71:79:0b:24:1e:34:2c:74:b7:ed:13:db:
                    70:f8:85:ae:c8:01:67:88:06:51:b0:cd:45:3c:2b:
                    a2:2a:fa:ad:03:9b:30:f9:71:ae:f0:af:5c:b6:13:
                    7f:40:0b:df:75:d7:77:bc:a3:71:e4:b2:ef:c3:c7:
                    c9:4d:0a:b7:3b:01:68:8d:fb:22:c1:1e:60:33:4a:
                    da:c5:6e:f8:db:7a:13:fe:5c:4a:f1:3c:21:a4:11:
                    65:ed:7e:63:ea:60:4b:78:eb:14:e5:73:e5:b8:88:
                    ff:b2:8d:98:75:fd:69:31:75:05:d2:f1:1b:cb:19:
                    a2:08:db:3e:26:d6:80:ae:10:72:6a:b0:e7:fa:af:
                    66:da:39:4d:e6:68:a5:51:c5:bb:eb:75:4c:0e:3b:
                    e2:58:de:fa:55:8d:0a:30:a2:c9:b8:c1:d5:1a:9c:
                    67:45:88:2e:15:b4:d8:ea:59:23:6f:44:83:13:d7:
                    0e:bc:e9:b9:eb:dd:15:5f:59:27:bf:ff:a1:56:e6:
                    fc:e5:a5:bf:20:35:c4:6c:ec:37:41:9c:0c:ca:16:
                    8b:26:dd:ed:70:fc:fb:03:a0:a5:ee:8d:5e:c3:8e:
                    02:10:2f
                Exponent: 65537 (0x10001)
        X509v3 extensions:
            X509v3 Key Usage: critical
                Digital Signature, Key Encipherment
            X509v3 Extended Key Usage: 
                TLS Web Server Authentication
    Signature Algorithm: sha512WithRSAEncryption
         b0:34:16:43:ed:b6:55:34:de:71:ae:c3:c4:43:4c:10:73:29:
         2a:63:c4:82:ae:bd:fa:a8:6a:b1:88:0a:4e:4d:00:52:b4:cf:
         0a:1e:2d:d1:5d:b9:12:68:80:90:56:06:42:fd:7f:90:1e:89:
         a6:a4:fd:c4:b5:f8:96:13:a8:f1:6c:05:8c:4b:71:d3:7e:ba:
         b8:f0:0f:08:e7:2f:22:81:4a:38:a3:cc:cb:03:47:5b:bb:f8:
         42:df:c9:45:43:a1:7f:2b:94:ca:f0:c1:75:b7:4d:77:2e:44:
         6b:5d:87:bc:f6:1d:dc:28:63:d9:d2:f9:76:25:58:83:a2:fb:
         a9:23:0e:56:1b:2e:1d:e4:81:c6:57:a2:dc:9a:ad:30:30:4f:
         86:66:b2:70:db:98:6e:18:21:8b:93:9d:ee:0c:bd:52:0a:da:
         74:b4:f2:16:cb:64:0c:50:7b:09:df:c4:93:aa:6a:59:c8:9e:
         5e:0c:24:41:8b:08:77:87:0a:3b:d2:a2:6a:24:f2:12:5e:68:
         81:b2:72:ac:74:06:b5:d2:73:1b:84:a0:ec:56:1f:c7:9b:fc:
         db:8c:cd:2f:e2:67:6c:57:1b:15:f7:a8:6a:12:10:f5:48:10:
         e8:3b:6f:a4:3f:fd:7e:f7:30:69:c8:cb:8d:1a:6f:ca:53:c1:
         56:1c:2a:7d:5b:18:3e:ee:b6:9b:3d:ef:67:81:cb:9f:c4:ec:
         2e:9d:e3:1b:2a:c2:9e:1f:87:2d:4b:c1:cf:59:4e:13:23:4f:
         39:ac:d2:2c:23:82:4a:cf:2c:ae:c0:dc:98:e0:a9:c4:b6:48:
         37:61:3e:fb:30:90:5a:09:ad:c9:d4:41:f0:88:5b:01:1b:0b:
         6c:3a:71:fa:0a:13:93:f3:69:ca:e1:95:0c:bc:44:6e:c2:8c:
         ae:f2:3c:96:2f:5c:9d:fd:ad:b1:fa:b8:13:f8:94:b2:f6:aa:
         7b:58:7c:6f:3d:57:f9:af:1d:e8:e1:98:6d:31:bd:d2:f9:2d:
         ff:c6:79:00:96:99:ff:a7:1c:6c:0b:cb:53:c8:08:1f:a4:8e:
         24:cd:bf:9f:e3:68:76:4d:9e:20:be:f6:ef:0d:28:05:57:9b:
         b0:ea:8b:45:f1:9a:af:47:95:dd:c1:3e:f2:a5:06:24:4b:f6:
         f8:e8:52:ce:e2:79:97:a7:29:1a:23:ba:77:c7:ec:47:96:af:
         d3:99:b0:ce:44:14:32:b3:6a:4e:aa:98:da:6c:69:15:fe:ed:
         93:6c:a2:11:ad:c1:0e:0d:1d:df:ec:88:5f:8e:c3:60:fe:e2:
         ee:fe:cd:98:06:d0:6f:62:d4:39:ca:44:cc:77:23:84:aa:9e:
         6f:93:88:a3:1d:84:f4:2a
-----BEGIN CERTIFICATE-----
MIIE4zCCAsugAwIBAgIBAzANBgkqhkiG9w0BAQ0FADAhMQ0wCwYDVQQKDAREQU9T
MRAwDgYDVQQDDAdEQU9TIENBMB4XDTE5MDYwNTIxNTA0N1oXDTIwMDYwNDIxNTA0
N1owIDENMAsGA1UECgwEREFPUzEPMA0GA1UEAwwGc2VydmVyMIICIjANBgkqhkiG
9w0BAQEFAAOCAg8AMIICCgKCAgEAzNNro2aQDSjf6H6li0ETdFJqLDmzvgqu9Kgc
448e7+EP5Tp1GVWX7OQpX5tdd+UQS2Y4YQptHBBYTQ68ECFvwzkV9lK2akCPh1W0
bK7UOkSEast/FiX3gfkyVd6ds+LDE7wV28zwXJA0OHscPT8XSj/SYzabYBhPpL2I
30J0AFMNbFuQaGLa6EiNrCafLRmHwTU7jYcUGV+MTFBUyuhS6PFjqZ9cpzUj+Abs
hYQF/IzTexJaQuuOrb+qc1/Lb2Oz+bFT7TtXApXE98J+AFnqkInXuNaRkPF/YZHr
ejA0sE/j48c5O3sGJKYlKVdE+nr33slXhF6p6kbm6zGiqUrbeIZiXS7O/Az7iSLN
euCHRWksSYIV0oYIdA8SgUqZ9MFxeQskHjQsdLftE9tw+IWuyAFniAZRsM1FPCui
KvqtA5sw+XGu8K9cthN/QAvfddd3vKNx5LLvw8fJTQq3OwFojfsiwR5gM0raxW74
23oT/lxK8TwhpBFl7X5j6mBLeOsU5XPluIj/so2Ydf1pMXUF0vEbyxmiCNs+JtaA
rhByarDn+q9m2jlN5milUcW763VMDjviWN76VY0KMKLJuMHVGpxnRYguFbTY6lkj
b0SDE9cOvOm5690VX1knv/+hVub85aW/IDXEbOw3QZwMyhaLJt3tcPz7A6Cl7o1e
w44CEC8CAwEAAaMnMCUwDgYDVR0PAQH/BAQDAgWgMBMGA1UdJQQMMAoGCCsGAQUF
BwMBMA0GCSqGSIb3DQEBDQUAA4ICAQCwNBZD7bZVNN5xrsPEQ0wQcykqY8SCrr36
qGqxiApOTQBStM8KHi3RXbkSaICQVgZC/X+QHommpP3EtfiWE6jxbAWMS3HTfrq4
8A8I5y8igUo4o8zLA0dbu/hC38lFQ6F/K5TK8MF1t013LkRrXYe89h3cKGPZ0vl2
JViDovupIw5WGy4d5IHGV6Lcmq0wME+GZrJw25huGCGLk53uDL1SCtp0tPIWy2QM
UHsJ38STqmpZyJ5eDCRBiwh3hwo70qJqJPISXmiBsnKsdAa10nMbhKDsVh/Hm/zb
jM0v4mdsVxsV96hqEhD1SBDoO2+kP/1+9zBpyMuNGm/KU8FWHCp9Wxg+7rabPe9n
gcufxOwuneMbKsKeH4ctS8HPWU4TI085rNIsI4JKzyyuwNyY4KnEtkg3YT77MJBa
Ca3J1EHwiFsBGwtsOnH6ChOT82nK4ZUMvERuwoyu8jyWL1yd/a2x+rgT+JSy9qp7
WHxvPVf5rx3o4ZhtMb3S+S3/xnkAlpn/pxxsC8tTyAgfpI4kzb+f42h2TZ4gvvbv
DSgFV5uw6otF8ZqvR5XdwT7ypQYkS/b46FLO4nmXpykaI7p3x+xHlq/TmbDORBQy
s2pOqpjabGkV/u2TbKIRrcEODR3f7IhfjsNg/uLu/s2YBtBvYtQ5ykTMdyOEqp5v
k4ijHYT0Kg==
-----END CERTIFICATE-----
