Certificate:
    Data:
        Version: 3 (0x2)
        Serial Number: 1 (0x1)
        Signature Algorithm: sha512WithRSAEncryption
        Issuer: O=DAOS, CN=DAOS CA
        Validity
            Not Before: Feb  9 21:56:47 2023 GMT
            Not After : Feb 10 21:56:47 2023 GMT
        Subject: O=DAOS, CN=server
        Subject Public Key Info:
            Public Key Algorithm: rsaEncryption
                RSA Public-Key: (3072 bit)
                Modulus:
                    00:cc:9a:3e:9c:8b:e6:58:68:d1:d1:0f:e2:da:30:
                    8a:54:c8:99:8d:55:df:fa:b5:07:bb:16:e2:c5:58:
                    0a:42:c3:0a:08:f6:79:5d:e4:56:e0:24:41:50:d7:
                    ee:4b:59:2d:54:b3:b2:f3:93:19:63:70:a1:7c:d3:
                    72:65:df:4f:f2:ff:bb:3d:1e:52:f2:8a:85:a3:1f:
                    01:c6:ff:3a:04:1a:48:73:9f:f7:83:4e:25:12:28:
                    24:db:ac:fd:1b:8b:ba:0e:db:f0:a8:15:02:d0:1b:
                    5e:0b:a8:fd:38:2f:71:40:b0:8b:48:4f:20:49:90:
                    8b:17:a3:b4:a6:fc:68:64:19:a4:c5:36:6b:3c:b0:
                    89:42:b6:7d:14:18:50:6c:6c:97:89:31:00:fb:f5:
                    35:36:1f:81:26:2a:e3:79:81:d7:a8:ed:89:57:40:
                    92:cf:7c:a3:13:16:42:ec:93:e5:1e:d9:0d:2c:b1:
                    e4:99:db:36:42:55:69:79:58:13:3f:ca:40:fd:3d:
                    e2:c4:87:9d:c9:3d:f1:85:a8:26:5b:94:ed:dd:98:
                    9d:1a:9c:3f:19:59:98:a2:84:71:93:ab:7d:f3:ad:
                    d5:00:39:95:84:10:00:9b:98:31:ce:dc:7e:d9:9d:
                    76:76:96:61:30:c1:ca:a8:10:3a:f3:80:18:af:59:
                    03:0a:88:22:7d:fc:ad:b2:2d:a4:ce:06:c7:86:0e:
                    97:96:18:11:01:6f:7a:65:03:4e:75:9a:34:0f:9e:
                    10:0d:16:3c:06:35:9c:97:da:30:f3:8a:a7:a4:fd:
                    0c:f6:ce:e3:a9:09:88:40:70:de:d9:c1:55:59:71:
                    98:ec:bc:08:46:7d:7a:4f:29:b8:66:3f:99:74:87:
                    6f:ed:30:90:ba:ff:5c:6d:29:83:ae:83:ce:32:97:
                    96:2a:bd:56:1d:51:26:43:b6:0c:60:33:90:7e:c4:
                    ab:85:f5:26:15:fa:35:99:6c:33:5a:62:90:b0:fe:
                    24:0a:72:1f:84:e7:78:ee:cb:5b
                Exponent: 65537 (0x10001)
        X509v3 extensions:
            X509v3 Key Usage: critical
                Digital Signature, Key Encipherment
            X509v3 Extended Key Usage: 
                TLS Web Server Authentication, TLS Web Client Authentication
    Signature Algorithm: sha512WithRSAEncryption
         63:cd:fd:f8:86:8f:5b:4b:64:50:02:ba:95:01:d2:a4:53:56:
         06:dd:75:f8:58:51:ad:e6:a3:a3:22:d3:6b:22:be:0f:37:2b:
         4c:08:eb:06:0d:45:72:1f:e8:c1:62:f8:6c:94:71:81:7b:a8:
         26:1c:83:e2:4f:6d:49:f7:31:dd:d1:ff:de:be:91:5a:6b:2a:
         dd:b7:38:d6:13:27:85:e8:53:e2:7c:fb:22:ff:52:b6:36:73:
         08:4d:ab:73:6f:1d:76:16:b6:13:93:1d:f2:48:2b:91:4f:cc:
         96:5c:e5:77:d9:dc:2d:e5:1f:40:8d:14:79:03:6a:7d:35:a3:
         51:2a:a5:f8:2b:64:5b:d9:10:b1:89:28:8f:ec:83:94:af:09:
         95:f5:67:d1:65:a9:89:ff:a1:86:00:5e:fa:eb:95:a7:a3:7c:
         43:27:89:25:f0:34:fa:b9:d4:44:f9:c5:f9:f2:e8:0b:5c:a2:
         47:eb:44:90:ec:b2:43:0e:85:98:e8:ec:cb:e5:96:e1:6e:46:
         c4:36:47:95:e2:41:0b:22:61:ae:43:a5:da:a9:a0:db:11:d9:
         09:52:7a:9d:66:2a:ff:77:7d:dc:9d:95:03:05:e9:36:a1:79:
         dd:fc:bf:37:55:8e:db:d9:a4:73:a2:e5:af:70:3c:9c:31:54:
         35:b2:3d:43:7f:2c:67:65:bb:32:54:48:55:fc:ef:bd:f5:ab:
         6b:fa:ce:9c:66:ed:8f:15:e2:fa:9a:3a:e8:4c:ea:bd:64:65:
         75:45:d4:da:70:4c:0b:f8:c9:ae:b1:57:2d:36:ca:07:f2:63:
         45:b6:c0:b4:eb:10:e0:17:4e:8a:18:94:d6:9a:03:03:ee:e5:
         ed:52:7e:df:23:ae:2d:06:e5:8d:0b:3e:35:44:dd:62:49:cc:
         5f:5b:4a:7c:f0:2d:b9:2d:3f:b2:2b:87:40:11:23:f8:65:01:
         a5:51:11:58:e1:92:be:80:ba:2c:ac:4a:03:d2:e9:05:20:7d:
         40:e3:d9:f4:3e:64
-----BEGIN CERTIFICATE-----
MIID7TCCAlWgAwIBAgIBATANBgkqhkiG9w0BAQ0FADAhMQ0wCwYDVQQKDAREQU9T
MRAwDgYDVQQDDAdEQU9TIENBMB4XDTIzMDIwOTIxNTY0N1oXDTIzMDIxMDIxNTY0
N1owIDENMAsGA1UECgwEREFPUzEPMA0GA1UEAwwGc2VydmVyMIIBojANBgkqhkiG
9w0BAQEFAAOCAY8AMIIBigKCAYEAzJo+nIvmWGjR0Q/i2jCKVMiZjVXf+rUHuxbi
xVgKQsMKCPZ5XeRW4CRBUNfuS1ktVLOy85MZY3ChfNNyZd9P8v+7PR5S8oqFox8B
xv86BBpIc5/3g04lEigk26z9G4u6DtvwqBUC0BteC6j9OC9xQLCLSE8gSZCLF6O0
pvxoZBmkxTZrPLCJQrZ9FBhQbGyXiTEA+/U1Nh+BJirjeYHXqO2JV0CSz3yjExZC
7JPlHtkNLLHkmds2QlVpeVgTP8pA/T3ixIedyT3xhagmW5Tt3ZidGpw/GVmYooRx
k6t9863VADmVhBAAm5gxztx+2Z12dpZhMMHKqBA684AYr1kDCogiffytsi2kzgbH
hg6XlhgRAW96ZQNOdZo0D54QDRY8BjWcl9ow84qnpP0M9s7jqQmIQHDe2cFVWXGY
7LwIRn16Tym4Zj+ZdIdv7TCQuv9cbSmDroPOMpeWKr1WHVEmQ7YMYDOQfsSrhfUm
Ffo1mWwzWmKQsP4kCnIfhOd47stbAgMBAAGjMTAvMA4GA1UdDwEB/wQEAwIFoDAd
BgNVHSUEFjAUBggrBgEFBQcDAQYIKwYBBQUHAwIwDQYJKoZIhvcNAQENBQADggGB
AGPN/fiGj1tLZFACupUB0qRTVgbddfhYUa3mo6Mi02sivg83K0wI6wYNRXIf6MFi
+GyUcYF7qCYcg+JPbUn3Md3R/96+kVprKt23ONYTJ4XoU+J8+yL/UrY2cwhNq3Nv
HXYWthOTHfJIK5FPzJZc5XfZ3C3lH0CNFHkDan01o1EqpfgrZFvZELGJKI/sg5Sv
CZX1Z9FlqYn/oYYAXvrrlaejfEMniSXwNPq51ET5xfny6AtcokfrRJDsskMOhZjo
7MvlluFuRsQ2R5XiQQsiYa5DpdqpoNsR2QlSep1mKv93fdydlQMF6Tahed38vzdV
jtvZpHOi5a9wPJwxVDWyPUN/LGdluzJUSFX87731q2v6zpxm7Y8V4vqaOuhM6r1k
ZXVF1NpwTAv4ya6xVy02ygfyY0W2wLTrEOAXTooYlNaaAwPu5e1Sft8jri0G5Y0L
PjVE3WJJzF9bSnzwLbktP7Irh0ARI/hlAaVREVjhkr6AuiysSgPS6QUgfUDj2fQ+
ZA==
-----END CERTIFICATE-----
